target datalayout = "e-m:e-p270:32:32-p271:32:32-p272:64:64-i64:64-i128:128-f80:128-n8:16:32:64-S128"
target triple = "x86_64-pc-linux-gnu"

%struct.AVComplexFloat = type { float, float }
%struct.AVTXContext = type { i32, i32, ptr, ptr, ptr, ptr, [4 x ptr], i32, [4 x ptr], ptr, i32, i64, i32, float, double, ptr }

; Function Attrs: nounwind uwtable
define i32 @ff_tx_mdct_gen_exp_float(ptr noundef %0, ptr noundef %1) #4 {
  %3 = alloca i32, align 4
  %4 = alloca ptr, align 8
  %5 = alloca ptr, align 8
  %6 = alloca i32, align 4
  %7 = alloca i32, align 4
  %8 = alloca double, align 8
  %9 = alloca double, align 8
  %10 = alloca i64, align 8
  %11 = alloca i32, align 4
  %12 = alloca i32, align 4
  %13 = alloca double, align 8
  %14 = alloca %struct.AVComplexFloat, align 4
  %15 = alloca i32, align 4
  store ptr %0, ptr %4, align 8, !tbaa !17
  store ptr %1, ptr %5, align 8, !tbaa !19
  call void @llvm.lifetime.start.p0(i64 4, ptr %6) #10
  store i32 0, ptr %6, align 4, !tbaa !4
  call void @llvm.lifetime.start.p0(i64 4, ptr %7) #10
  %16 = load ptr, ptr %4, align 8, !tbaa !17
  %17 = getelementptr inbounds nuw %struct.AVTXContext, ptr %16, i32 0, i32 0
  %18 = load i32, ptr %17, align 8, !tbaa !21
  %19 = ashr i32 %18, 1
  store i32 %19, ptr %7, align 4, !tbaa !4
  call void @llvm.lifetime.start.p0(i64 8, ptr %8) #10
  %20 = load ptr, ptr %4, align 8, !tbaa !17
  %21 = getelementptr inbounds nuw %struct.AVTXContext, ptr %20, i32 0, i32 14
  %22 = load double, ptr %21, align 8, !tbaa !28
  store double %22, ptr %8, align 8, !tbaa !29
  call void @llvm.lifetime.start.p0(i64 8, ptr %9) #10
  %23 = load double, ptr %8, align 8, !tbaa !29
  %24 = fcmp nsz olt double %23, 0.000000e+00
  br i1 %24, label %25, label %27

25:                                               ; preds = %2
  %26 = load i32, ptr %7, align 4, !tbaa !4
  br label %28

27:                                               ; preds = %2
  br label %28

28:                                               ; preds = %27, %25
  %29 = phi i32 [ %26, %25 ], [ 0, %27 ]
  %30 = sitofp i32 %29 to double
  %31 = fadd nsz double %30, 1.250000e-01
  store double %31, ptr %9, align 8, !tbaa !29
  call void @llvm.lifetime.start.p0(i64 8, ptr %10) #10
  %32 = load ptr, ptr %5, align 8, !tbaa !19
  %33 = icmp ne ptr %32, null
  br i1 %33, label %34, label %37

34:                                               ; preds = %28
  %35 = load i32, ptr %7, align 4, !tbaa !4
  %36 = mul nsw i32 2, %35
  br label %39

37:                                               ; preds = %28
  %38 = load i32, ptr %7, align 4, !tbaa !4
  br label %39

39:                                               ; preds = %37, %34
  %40 = phi i32 [ %36, %34 ], [ %38, %37 ]
  %41 = sext i32 %40 to i64
  store i64 %41, ptr %10, align 8, !tbaa !30
  %42 = load i64, ptr %10, align 8, !tbaa !30
  %43 = call ptr @av_malloc_array(i64 noundef %42, i64 noundef 8)
  %44 = load ptr, ptr %4, align 8, !tbaa !17
  %45 = getelementptr inbounds nuw %struct.AVTXContext, ptr %44, i32 0, i32 3
  store ptr %43, ptr %45, align 8, !tbaa !31
  %46 = icmp ne ptr %43, null
  br i1 %46, label %48, label %47

47:                                               ; preds = %39
  store i32 -12, ptr %3, align 4
  store i32 1, ptr %11, align 4
  br label %127

48:                                               ; preds = %39
  %49 = load double, ptr %8, align 8, !tbaa !29
  %50 = call nsz double @llvm.fabs.f64(double %49)
  %51 = call nsz double @llvm.sqrt.f64(double %50)
  store double %51, ptr %8, align 8, !tbaa !29
  %52 = load ptr, ptr %5, align 8, !tbaa !19
  %53 = icmp ne ptr %52, null
  br i1 %53, label %54, label %56

54:                                               ; preds = %48
  %55 = load i32, ptr %7, align 4, !tbaa !4
  store i32 %55, ptr %6, align 4, !tbaa !4
  br label %56

56:                                               ; preds = %54, %48
  call void @llvm.lifetime.start.p0(i64 4, ptr %12) #10
  store i32 0, ptr %12, align 4, !tbaa !4
  br label %57

57:                                               ; preds = %91, %56
  %58 = load i32, ptr %12, align 4, !tbaa !4
  %59 = load i32, ptr %7, align 4, !tbaa !4
  %60 = icmp slt i32 %58, %59
  br i1 %60, label %62, label %61

61:                                               ; preds = %57
  store i32 2, ptr %11, align 4
  call void @llvm.lifetime.end.p0(i64 4, ptr %12) #10
  br label %94

62:                                               ; preds = %57
  call void @llvm.lifetime.start.p0(i64 8, ptr %13) #10
  %63 = load i32, ptr %12, align 4, !tbaa !4
  %64 = sitofp i32 %63 to double
  %65 = load double, ptr %9, align 8, !tbaa !29
  %66 = fadd nsz double %64, %65
  %67 = fmul nsz double 0x3FF921FB54442D18, %66
  %68 = load i32, ptr %7, align 4, !tbaa !4
  %69 = sitofp i32 %68 to double
  %70 = fdiv nsz double %67, %69
  store double %70, ptr %13, align 8, !tbaa !29
  %71 = load ptr, ptr %4, align 8, !tbaa !17
  %72 = getelementptr inbounds nuw %struct.AVTXContext, ptr %71, i32 0, i32 3
  %73 = load ptr, ptr %72, align 8, !tbaa !31
  %74 = load i32, ptr %6, align 4, !tbaa !4
  %75 = load i32, ptr %12, align 4, !tbaa !4
  %76 = add nsw i32 %74, %75
  %77 = sext i32 %76 to i64
  %78 = getelementptr inbounds %struct.AVComplexFloat, ptr %73, i64 %77
  %79 = getelementptr inbounds nuw %struct.AVComplexFloat, ptr %14, i32 0, i32 0
  %80 = load double, ptr %13, align 8, !tbaa !29
  %81 = call nsz double @llvm.cos.f64(double %80)
  %82 = load double, ptr %8, align 8, !tbaa !29
  %83 = fmul nsz double %81, %82
  %84 = fptrunc nsz double %83 to float
  store float %84, ptr %79, align 4, !tbaa !32
  %85 = getelementptr inbounds nuw %struct.AVComplexFloat, ptr %14, i32 0, i32 1
  %86 = load double, ptr %13, align 8, !tbaa !29
  %87 = call nsz double @llvm.sin.f64(double %86)
  %88 = load double, ptr %8, align 8, !tbaa !29
  %89 = fmul nsz double %87, %88
  %90 = fptrunc nsz double %89 to float
  store float %90, ptr %85, align 4, !tbaa !34
  call void @llvm.memcpy.p0.p0.i64(ptr align 4 %78, ptr align 4 %14, i64 8, i1 false), !tbaa.struct !35
  call void @llvm.lifetime.end.p0(i64 8, ptr %13) #10
  br label %91

91:                                               ; preds = %62
  %92 = load i32, ptr %12, align 4, !tbaa !4
  %93 = add nsw i32 %92, 1
  store i32 %93, ptr %12, align 4, !tbaa !4
  br label %57, !llvm.loop !37

94:                                               ; preds = %61
  %95 = load ptr, ptr %5, align 8, !tbaa !19
  %96 = icmp ne ptr %95, null
  br i1 %96, label %97, label %126

97:                                               ; preds = %94
  call void @llvm.lifetime.start.p0(i64 4, ptr %15) #10
  store i32 0, ptr %15, align 4, !tbaa !4
  br label %98

98:                                               ; preds = %122, %97
  %99 = load i32, ptr %15, align 4, !tbaa !4
  %100 = load i32, ptr %7, align 4, !tbaa !4
  %101 = icmp slt i32 %99, %100
  br i1 %101, label %103, label %102

102:                                              ; preds = %98
  store i32 5, ptr %11, align 4
  call void @llvm.lifetime.end.p0(i64 4, ptr %15) #10
  br label %125

103:                                              ; preds = %98
  %104 = load ptr, ptr %4, align 8, !tbaa !17
  %105 = getelementptr inbounds nuw %struct.AVTXContext, ptr %104, i32 0, i32 3
  %106 = load ptr, ptr %105, align 8, !tbaa !31
  %107 = load i32, ptr %15, align 4, !tbaa !4
  %108 = sext i32 %107 to i64
  %109 = getelementptr inbounds %struct.AVComplexFloat, ptr %106, i64 %108
  %110 = load ptr, ptr %4, align 8, !tbaa !17
  %111 = getelementptr inbounds nuw %struct.AVTXContext, ptr %110, i32 0, i32 3
  %112 = load ptr, ptr %111, align 8, !tbaa !31
  %113 = load i32, ptr %7, align 4, !tbaa !4
  %114 = load ptr, ptr %5, align 8, !tbaa !19
  %115 = load i32, ptr %15, align 4, !tbaa !4
  %116 = sext i32 %115 to i64
  %117 = getelementptr inbounds i32, ptr %114, i64 %116
  %118 = load i32, ptr %117, align 4, !tbaa !4
  %119 = add nsw i32 %113, %118
  %120 = sext i32 %119 to i64
  %121 = getelementptr inbounds %struct.AVComplexFloat, ptr %112, i64 %120
  call void @llvm.memcpy.p0.p0.i64(ptr align 4 %109, ptr align 4 %121, i64 8, i1 false), !tbaa.struct !35
  br label %122

122:                                              ; preds = %103
  %123 = load i32, ptr %15, align 4, !tbaa !4
  %124 = add nsw i32 %123, 1
  store i32 %124, ptr %15, align 4, !tbaa !4
  br label %98, !llvm.loop !38

125:                                              ; preds = %102
  br label %126

126:                                              ; preds = %125, %94
  store i32 0, ptr %3, align 4
  store i32 1, ptr %11, align 4
  br label %127

127:                                              ; preds = %126, %47
  call void @llvm.lifetime.end.p0(i64 8, ptr %10) #10
  call void @llvm.lifetime.end.p0(i64 8, ptr %9) #10
  call void @llvm.lifetime.end.p0(i64 8, ptr %8) #10
  call void @llvm.lifetime.end.p0(i64 4, ptr %7) #10
  call void @llvm.lifetime.end.p0(i64 4, ptr %6) #10
  %128 = load i32, ptr %3, align 4
  ret i32 %128
}